; ModuleID = '63/1861.c'
source_filename = "63/1861.c"
target datalayout = "e-m:e-p270:32:32-p271:32:32-p272:64:64-i64:64-f80:128-n8:16:32:64-S128"
target triple = "x86_64-pc-linux-gnu"

@.str = private unnamed_addr constant [6 x i8] c"%d %d\00", align 1
@.str.1 = private unnamed_addr constant [3 x i8] c"%d\00", align 1
@.str.2 = private unnamed_addr constant [4 x i8] c"%d \00", align 1
@.str.3 = private unnamed_addr constant [4 x i8] c"%d\0A\00", align 1

; Function Attrs: noinline nounwind uwtable
define dso_local i32 @main() #0 {
  %1 = alloca i32, align 4
  %2 = alloca i32, align 4
  %3 = alloca i32, align 4
  %4 = alloca i32, align 4
  %5 = alloca i32, align 4
  %6 = alloca i32, align 4
  %7 = alloca i32, align 4
  %8 = alloca i32, align 4
  %9 = alloca [101 x [101 x i32]], align 16
  %10 = alloca [101 x [101 x i32]], align 16
  %11 = alloca [101 x [101 x i32]], align 16
  store i32 0, i32* %1, align 4
  %12 = bitcast [101 x [101 x i32]]* %11 to i8*
  call void @llvm.memset.p0i8.i64(i8* align 16 %12, i8 0, i64 40804, i1 false)
  %13 = call i32 (i8*, ...) @__isoc99_scanf(i8* getelementptr inbounds ([6 x i8], [6 x i8]* @.str, i64 0, i64 0), i32* %2, i32* %3)
  store i32 0, i32* %6, align 4
  br label %14

14:                                               ; preds = %36, %0
  %15 = load i32, i32* %6, align 4
  %16 = load i32, i32* %2, align 4
  %17 = sub nsw i32 %16, 1
  %18 = icmp sle i32 %15, %17
  br i1 %18, label %19, label %39

19:                                               ; preds = %14
  store i32 0, i32* %7, align 4
  br label %20

20:                                               ; preds = %33, %19
  %21 = load i32, i32* %7, align 4
  %22 = load i32, i32* %3, align 4
  %23 = sub nsw i32 %22, 1
  %24 = icmp sle i32 %21, %23
  br i1 %24, label %25, label %36

25:                                               ; preds = %20
  %26 = load i32, i32* %6, align 4
  %27 = sext i32 %26 to i64
  %28 = getelementptr inbounds [101 x [101 x i32]], [101 x [101 x i32]]* %9, i64 0, i64 %27
  %29 = load i32, i32* %7, align 4
  %30 = sext i32 %29 to i64
  %31 = getelementptr inbounds [101 x i32], [101 x i32]* %28, i64 0, i64 %30
  %32 = call i32 (i8*, ...) @__isoc99_scanf(i8* getelementptr inbounds ([3 x i8], [3 x i8]* @.str.1, i64 0, i64 0), i32* %31)
  br label %33

33:                                               ; preds = %25
  %34 = load i32, i32* %7, align 4
  %35 = add nsw i32 %34, 1
  store i32 %35, i32* %7, align 4
  br label %20

36:                                               ; preds = %20
  %37 = load i32, i32* %6, align 4
  %38 = add nsw i32 %37, 1
  store i32 %38, i32* %6, align 4
  br label %14

39:                                               ; preds = %14
  %40 = call i32 (i8*, ...) @__isoc99_scanf(i8* getelementptr inbounds ([6 x i8], [6 x i8]* @.str, i64 0, i64 0), i32* %4, i32* %5)
  store i32 0, i32* %6, align 4
  br label %41

41:                                               ; preds = %63, %39
  %42 = load i32, i32* %6, align 4
  %43 = load i32, i32* %4, align 4
  %44 = sub nsw i32 %43, 1
  %45 = icmp sle i32 %42, %44
  br i1 %45, label %46, label %66

46:                                               ; preds = %41
  store i32 0, i32* %7, align 4
  br label %47

47:                                               ; preds = %60, %46
  %48 = load i32, i32* %7, align 4
  %49 = load i32, i32* %5, align 4
  %50 = sub nsw i32 %49, 1
  %51 = icmp sle i32 %48, %50
  br i1 %51, label %52, label %63

52:                                               ; preds = %47
  %53 = load i32, i32* %6, align 4
  %54 = sext i32 %53 to i64
  %55 = getelementptr inbounds [101 x [101 x i32]], [101 x [101 x i32]]* %10, i64 0, i64 %54
  %56 = load i32, i32* %7, align 4
  %57 = sext i32 %56 to i64
  %58 = getelementptr inbounds [101 x i32], [101 x i32]* %55, i64 0, i64 %57
  %59 = call i32 (i8*, ...) @__isoc99_scanf(i8* getelementptr inbounds ([3 x i8], [3 x i8]* @.str.1, i64 0, i64 0), i32* %58)
  br label %60

60:                                               ; preds = %52
  %61 = load i32, i32* %7, align 4
  %62 = add nsw i32 %61, 1
  store i32 %62, i32* %7, align 4
  br label %47

63:                                               ; preds = %47
  %64 = load i32, i32* %6, align 4
  %65 = add nsw i32 %64, 1
  store i32 %65, i32* %6, align 4
  br label %41

66:                                               ; preds = %41
  store i32 0, i32* %6, align 4
  br label %67

67:                                               ; preds = %84, %66
  %68 = load i32, i32* %6, align 4
  %69 = icmp sle i32 %68, 100
  br i1 %69, label %70, label %87

70:                                               ; preds = %67
  store i32 0, i32* %7, align 4
  br label %71

71:                                               ; preds = %81, %70
  %72 = load i32, i32* %7, align 4
  %73 = icmp sle i32 %72, 100
  br i1 %73, label %74, label %84

74:                                               ; preds = %71
  %75 = load i32, i32* %6, align 4
  %76 = sext i32 %75 to i64
  %77 = getelementptr inbounds [101 x [101 x i32]], [101 x [101 x i32]]* %11, i64 0, i64 %76
  %78 = load i32, i32* %7, align 4
  %79 = sext i32 %78 to i64
  %80 = getelementptr inbounds [101 x i32], [101 x i32]* %77, i64 0, i64 %79
  store i32 0, i32* %80, align 4
  br label %81

81:                                               ; preds = %74
  %82 = load i32, i32* %7, align 4
  %83 = add nsw i32 %82, 1
  store i32 %83, i32* %7, align 4
  br label %71

84:                                               ; preds = %71
  %85 = load i32, i32* %6, align 4
  %86 = add nsw i32 %85, 1
  store i32 %86, i32* %6, align 4
  br label %67

87:                                               ; preds = %67
  store i32 0, i32* %6, align 4
  br label %88

88:                                               ; preds = %141, %87
  %89 = load i32, i32* %6, align 4
  %90 = load i32, i32* %2, align 4
  %91 = sub nsw i32 %90, 1
  %92 = icmp sle i32 %89, %91
  br i1 %92, label %93, label %144

93:                                               ; preds = %88
  store i32 0, i32* %7, align 4
  br label %94

94:                                               ; preds = %138, %93
  %95 = load i32, i32* %7, align 4
  %96 = load i32, i32* %5, align 4
  %97 = sub nsw i32 %96, 1
  %98 = icmp sle i32 %95, %97
  br i1 %98, label %99, label %141

99:                                               ; preds = %94
  store i32 0, i32* %8, align 4
  br label %100

100:                                              ; preds = %105, %99
  %101 = load i32, i32* %8, align 4
  %102 = load i32, i32* %3, align 4
  %103 = sub nsw i32 %102, 1
  %104 = icmp sle i32 %101, %103
  br i1 %104, label %105, label %137

105:                                              ; preds = %100
  %106 = load i32, i32* %6, align 4
  %107 = sext i32 %106 to i64
  %108 = getelementptr inbounds [101 x [101 x i32]], [101 x [101 x i32]]* %11, i64 0, i64 %107
  %109 = load i32, i32* %7, align 4
  %110 = sext i32 %109 to i64
  %111 = getelementptr inbounds [101 x i32], [101 x i32]* %108, i64 0, i64 %110
  %112 = load i32, i32* %111, align 4
  %113 = load i32, i32* %6, align 4
  %114 = sext i32 %113 to i64
  %115 = getelementptr inbounds [101 x [101 x i32]], [101 x [101 x i32]]* %9, i64 0, i64 %114
  %116 = load i32, i32* %8, align 4
  %117 = sext i32 %116 to i64
  %118 = getelementptr inbounds [101 x i32], [101 x i32]* %115, i64 0, i64 %117
  %119 = load i32, i32* %118, align 4
  %120 = load i32, i32* %8, align 4
  %121 = sext i32 %120 to i64
  %122 = getelementptr inbounds [101 x [101 x i32]], [101 x [101 x i32]]* %10, i64 0, i64 %121
  %123 = load i32, i32* %7, align 4
  %124 = sext i32 %123 to i64
  %125 = getelementptr inbounds [101 x i32], [101 x i32]* %122, i64 0, i64 %124
  %126 = load i32, i32* %125, align 4
  %127 = mul nsw i32 %119, %126
  %128 = add nsw i32 %112, %127
  %129 = load i32, i32* %6, align 4
  %130 = sext i32 %129 to i64
  %131 = getelementptr inbounds [101 x [101 x i32]], [101 x [101 x i32]]* %11, i64 0, i64 %130
  %132 = load i32, i32* %7, align 4
  %133 = sext i32 %132 to i64
  %134 = getelementptr inbounds [101 x i32], [101 x i32]* %131, i64 0, i64 %133
  store i32 %128, i32* %134, align 4
  %135 = load i32, i32* %8, align 4
  %136 = add nsw i32 %135, 1
  store i32 %136, i32* %8, align 4
  br label %100

137:                                              ; preds = %100
  br label %138

138:                                              ; preds = %137
  %139 = load i32, i32* %7, align 4
  %140 = add nsw i32 %139, 1
  store i32 %140, i32* %7, align 4
  br label %94

141:                                              ; preds = %94
  %142 = load i32, i32* %6, align 4
  %143 = add nsw i32 %142, 1
  store i32 %143, i32* %6, align 4
  br label %88

144:                                              ; preds = %88
  store i32 0, i32* %6, align 4
  br label %145

145:                                              ; preds = %168, %144
  %146 = load i32, i32* %6, align 4
  %147 = load i32, i32* %2, align 4
  %148 = sub nsw i32 %147, 1
  %149 = icmp sle i32 %146, %148
  br i1 %149, label %150, label %179

150:                                              ; preds = %145
  store i32 0, i32* %7, align 4
  br label %151

151:                                              ; preds = %165, %150
  %152 = load i32, i32* %7, align 4
  %153 = load i32, i32* %5, align 4
  %154 = sub nsw i32 %153, 2
  %155 = icmp sle i32 %152, %154
  br i1 %155, label %156, label %168

156:                                              ; preds = %151
  %157 = load i32, i32* %6, align 4
  %158 = sext i32 %157 to i64
  %159 = getelementptr inbounds [101 x [101 x i32]], [101 x [101 x i32]]* %11, i64 0, i64 %158
  %160 = load i32, i32* %7, align 4
  %161 = sext i32 %160 to i64
  %162 = getelementptr inbounds [101 x i32], [101 x i32]* %159, i64 0, i64 %161
  %163 = load i32, i32* %162, align 4
  %164 = call i32 (i8*, ...) @printf(i8* getelementptr inbounds ([4 x i8], [4 x i8]* @.str.2, i64 0, i64 0), i32 %163)
  br label %165

165:                                              ; preds = %156
  %166 = load i32, i32* %7, align 4
  %167 = add nsw i32 %166, 1
  store i32 %167, i32* %7, align 4
  br label %151

168:                                              ; preds = %151
  %169 = load i32, i32* %6, align 4
  %170 = sext i32 %169 to i64
  %171 = getelementptr inbounds [101 x [101 x i32]], [101 x [101 x i32]]* %11, i64 0, i64 %170
  %172 = load i32, i32* %7, align 4
  %173 = sext i32 %172 to i64
  %174 = getelementptr inbounds [101 x i32], [101 x i32]* %171, i64 0, i64 %173
  %175 = load i32, i32* %174, align 4
  %176 = call i32 (i8*, ...) @printf(i8* getelementptr inbounds ([4 x i8], [4 x i8]* @.str.3, i64 0, i64 0), i32 %175)
  %177 = load i32, i32* %6, align 4
  %178 = add nsw i32 %177, 1
  store i32 %178, i32* %6, align 4
  br label %145

179:                                              ; preds = %145
  %180 = load i32, i32* %1, align 4
  ret i32 %180
}

; Function Attrs: argmemonly nounwind willreturn
declare void @llvm.memset.p0i8.i64(i8* nocapture writeonly, i8, i64, i1 immarg) #1

declare dso_local i32 @__isoc99_scanf(i8*, ...) #2

declare dso_local i32 @printf(i8*, ...) #2


!llvm.module.flags = !{!0}
!llvm.ident = !{!1}

!0 = !{i32 1, !"wchar_size", i32 4}
!1 = !{!"clang version 10.0.0-4ubuntu1 "}
